
                   J E S 2  J O B  L O G  --  S Y S T E M  8 5 6 1  --  N O D E  S V S C J E S 2        

 
15.24.46 JOB05107 ---- TUESDAY,   29 APR 2025 ----
15.24.46 JOB05107  IRR010I  USERID KC03AEE  IS ASSIGNED TO THIS JOB.
15.24.46 JOB05107  ICH70001I KC03AEE  LAST ACCESS AT 15:20:36 ON TUESDAY, APRIL 29, 2025
15.24.46 JOB05107  $HASP373 KC03AEEA STARTED - INIT 1    - CLASS A        - SYS 8561
15.24.46 JOB05107  -                                      -----TIMINGS (MINS.)------                          -----PAGING COUNTS----
15.24.46 JOB05107  -STEPNAME PROCSTEP    RC   EXCP   CONN       TCB       SRB  CLOCK          SERV  WORKLOAD  PAGE  SWAP   VIO SWAPS
15.24.46 JOB05107  -JSTEP01              00     71      5       .00       .00     .0            13  BATCH        0     0     0     0
15.24.46 JOB05107  -KC03AEEA ENDED.  NAME-N. WARNER            TOTAL TCB CPU TIME=      .00 TOTAL ELAPSED TIME=    .0
15.24.46 JOB05107  $HASP395 KC03AEEA ENDED - RC=0000

------ JES2 JOB STATISTICS ------


  29 APR 2025 JOB EXECUTION DATE


          757 CARDS READ


        1,011 SYSOUT PRINT RECORDS


            0 SYSOUT PUNCH RECORDS


           88 SYSOUT SPOOL KBYTES


         0.00 MINUTES EXECUTION TIME
       1 //KC03AEEA JOB ,'N. WARNER',MSGCLASS=H                                  JOB05107
       2 //JSTEP01 EXEC PGM=ASSIST                                                       
       3 //STEPLIB DD DSN=KC00NIU.ASSIST.LOADLIB,DISP=SHR                                
       4 //SYSPRINT DD SYSOUT=*                                                          
       5 //SYSIN DD *                                                                    
         //*                                                                             
       6 //FT05F001 DD DSN=KC02322.CSCI360.DATASP25(DATA10),DISP=SHR                     
         //*                                                                             
       7 //FT06F001 DD SYSOUT=*                                                          
       8 //                                                                              
ICH70001I KC03AEE  LAST ACCESS AT 15:20:36 ON TUESDAY, APRIL 29, 2025
IEFA111I KC03AEEA IS USING THE FOLLOWING JOB RELATED SETTINGS:
         SWA=ABOVE,TIOT SIZE=32K,DSENQSHR=DISALLOW,GDGBIAS=JOB
IEF236I ALLOC. FOR KC03AEEA JSTEP01
IGD103I SMS ALLOCATED TO DDNAME STEPLIB
IEF237I JES2 ALLOCATED TO SYSPRINT
IEF237I JES2 ALLOCATED TO SYSIN
IGD103I SMS ALLOCATED TO DDNAME FT05F001
IEF237I JES2 ALLOCATED TO FT06F001
IEF142I KC03AEEA JSTEP01 - STEP WAS EXECUTED - COND CODE 0000
IGD104I KC00NIU.ASSIST.LOADLIB                       RETAINED,  DDNAME=STEPLIB 
IEF285I   KC03AEE.KC03AEEA.JOB05107.D0000102.?         SYSOUT        
IEF285I   KC03AEE.KC03AEEA.JOB05107.D0000101.?         SYSIN         
IGD104I KC02322.CSCI360.DATASP25                     RETAINED,  DDNAME=FT05F001
IEF285I   KC03AEE.KC03AEEA.JOB05107.D0000103.?         SYSOUT        
IEF373I STEP/JSTEP01 /START 2025119.1524
IEF032I STEP/JSTEP01 /STOP  2025119.1524 
        CPU:     0 HR  00 MIN  00.01 SEC    SRB:     0 HR  00 MIN  00.00 SEC    
        VIRT:   584K  SYS:   292K  EXT:        8K  SYS:    11352K
        ATB- REAL:                  1268K  SLOTS:                     0K
             VIRT- ALLOC:      16M SHRD:       0M
IEF375I  JOB/KC03AEEA/START 2025119.1524
IEF033I  JOB/KC03AEEA/STOP  2025119.1524 
        CPU:     0 HR  00 MIN  00.01 SEC    SRB:     0 HR  00 MIN  00.00 SEC    

*** ASSIST 4.0/A2-05/15/82  470/V7A/0:OS/VS2  INS=SDFP7/X=BGHO, CHECK/TRC/=1180, OPTS=CDKMPR FROM PENN ST*NIU COMPSCI*LT            

                                                                                                                                    

                                                                                                               PAGE    1            

  LOC  OBJECT CODE    ADDR1 ADDR2  STMT   SOURCE STATEMENT                                                                          
                                      1 ***************************************************************                             
                                      2 * *                                                            *                            
                                      3 * CSCI 360-1 ASSIGNMENT 10                                                                  
                                      4 * spring 2025                                                                               
                                      5 * *                                                           *                             
                                      6 * PROGRAMMER NAME: Nate Warner                                                              
                                      7 * DATE DUE: 5/02/25                                                                         
                                      8 * *                                                           *                             
                                      9 * MAIN PROGRAM NAME: PAYROLL                                                                
                                     10 * *                                                                                         
                                     11 * FUNCTION: An extension of programs 7,8,9 using external subroutines                       
                                     12 *                                                                                           
                                     13 *                                                                                           
                                     14 * *                                                           *                             
                                     15 ***************************************************************                             
                                     16 *                                                                                           
000000                               17 PAYROLL CSECT                                                                               
                                     18 *                                                                                           
                                     19 * STANDARD ENTRY LINKAGE WITH R12 AS BASE REGISTER                                          
                                     20 *                                                                                           
000000 90EC D00C            0000C    21          STM   14,12,12(13) SAVE REGS IN CALLER'S SAVE AREA                                 
000004 18CF                          22          LR    12,15 COPY CSECT ADDR INTO R12                                               
000000                               23          USING PAYROLL,12 ESTABLISH R12 AS THE BASE REG                                     
000006 41E0 C080            00080    24          LA    14,SAVEAREA R14 POINTS TO THIS CSECT'S SAVE AREA                             
00000A 50E0 D008            00008    25          ST    14,8(,13) STORE ADDR OF THIS CSECT'S SAVE AREA                               
00000E 50D0 E004            00004    26          ST    13,4(,14) STORE ADDR OF CALLER'S SAVE AREA                                   
000012 18DE                          27          LR    13,14 POINT R13 AT THIS CSECT'S SAVE AREA                                    
                                     28 *                                                                                           
                                     29 * Estabilsh a second base register                                                          
                                     30 *                                                                                           
000014 41B0 CFFF            00FFF    31          LA    11,4095(,12)                                                                 
000018 41B0 B001            00001    32          LA    11,1(,11)                                                                    
001000                               33          USING PAYROLL+4096,11                                                              
                                     34 *                                                                                           
                                     35 * CALL BUILDTBL                                                                             
                                     36 *                                                                                           
00001C 4110 B484            01484    37          LA    1,BTPARMS           Load addr of parm list                                   
000020 58F0 C040            00040    38          L     15,=V(BUILDTBL)     Load addr of subprogram                                  
000024 05EF                          39          BALR  14,15               Branch and link to R15                                   
                                     40 *                                                                                           
                                     41 * CALL PROCTBL                                                                              
                                     42 *                                                                                           
000026 4110 B494            01494    43          LA    1,PTPARMS           Load addr of parm list                                   
00002A 58F0 C044            00044    44          L     15,=V(PROCTBL)      Load addr of subprogram                                  
00002E 05EF                          45          BALR  14,15               Branch and link to R15                                   
                                     46 *                                                                                           
                                     47 * STANDARD EXIT LINKAGE WITH RC OF 0                                                        
                                     48 *                                                                                           
000030 1BFF                          49          SR    15,15 R15 = RETURN CODE OF 0                                                 
000032 58D0 D004            00004    50          L     13,4(,13) POINT R13 TO CALLER'S SAVE AREA                                    
000036 58E0 D00C            0000C    51          L     14,12(,13) RESTORE REGISTER 14                                               
00003A 980C D014            00014    52          LM    0,12,20(13) RESTORE R0 THRU R12                                              

                                                                                                               PAGE    2            

  LOC  OBJECT CODE    ADDR1 ADDR2  STMT   SOURCE STATEMENT                                                                          
                                     53 *                                                                                           
00003E 07FE                          54          BR    14 RETURN TO CALLER                                                          
                                     55 *                                                                                           
                                     56          LTORG                                                                              
000040 000014A8                      57                =V(BUILDTBL)                                                                 
000044 00001658                      58                =V(PROCTBL)                                                                  
                                     59 *                                                                                           
000060                               60          ORG PAYROLL+((*-PAYROLL+31)/32)*32                                                 
000060 5C40D7D9D6C7D9C1              61          DC C'* PROGRAM STORAGE FOR PAYROLL **'                                             
                                     62 *                                                                                           
000080                               63 SAVEAREA DS 18F REGISTER SAVE AREA                                                          
                                     64 *                                                                                           
                                     65 * PROGRAM TABLE                                                                             
                                     66 *                                                                                           
0000C8                               67 EMPTBL   DS    120CL42                                                                      
                                     68 *                                                                                           
                                     69 * PACKED DECIMAL VARIABLES                                                                  
                                     70 *                                                                                           
001478 0000000C                      71 PFWHPCT  DC    PL4'0' PACKED FEDERAL WITHHOLDING PERCENTAGE                                 
00147C 0000000C                      72 PSWHPCT  DC    PL4'0' PACKED STATE WITHHOLDING PERCENTAGE                                   
                                     73 *                                                                                           
001480 00000C                        74 PEMPCTR  DC    PL3'0' PACKED EMPLOYEE COUNTER (MAX 999)                                     
                                     75 *                                                                                           
001484 000000C8                      76 BTPARMS  DC    A(EMPTBL)                                                                    
001488 00001480                      77          DC    A(PEMPCTR)                                                                   
00148C 00001478                      78          DC    A(PFWHPCT)                                                                   
001490 0000147C                      79          DC    A(PSWHPCT)                                                                   
                                     80 *                                                                                           
001494 000000C8                      81 PTPARMS  DC    A(EMPTBL)                                                                    
001498 00001480                      82          DC    A(PEMPCTR)                                                                   
00149C 00001478                      83          DC    A(PFWHPCT)                                                                   
0014A0 0000147C                      84          DC    A(PSWHPCT)                                                                   
                                     85 *                                                                                           
                                     86 * BUILDTBL PROGRAM                                                                          
                                     87 *                                                                                           
000000                               88 $TEMPENT DSECT                                                                              
000000                               89 $TEMPID  DS    PL5                                                                          
000005                               90 $TEMPNME DS    CL25                                                                         
00001E                               91 $THRPAY  DS    PL3                                                                          
000021                               92 $THOURS  DS    PL3                                                                          
000024                               93 $TDEDUCT DS    PL3                                                                          
000027                               94 $TBONUS  DS    PL3                                                                          
                                     95 *                                                                                           
0014A8                               96 BUILDTBL CSECT                                                                              
                                     97 *                                                                                           
                                     98 * STANDARD ENTRY LINKAGE WITH R12 AS BASE REGISTER                                          
                                     99 *                                                                                           
0014A8 90EC D00C            0000C   100          STM   14,12,12(13) SAVE REGS IN CALLER'S SAVE AREA                                 
0014AC 18CF                         101          LR    12,15 COPY CSECT ADDR INTO R12                                               
0014A8                              102          USING BUILDTBL,12 ESTABLISH R12 AS THE BASE REG                                    
0014AE 41E0 C0C4            0156C   103          LA    14,BTBLSAVE R14 POINTS TO THIS CSECT'S SAVE AREA                             
0014B2 50E0 D008            00008   104          ST    14,8(,13) STORE ADDR OF THIS CSECT'S SAVE AREA                               
0014B6 50D0 E004            00004   105          ST    13,4(,14) STORE ADDR OF CALLER'S SAVE AREA                                   
0014BA 18DE                         106          LR    13,14 POINT R13 AT THIS CSECT'S SAVE AREA                                    
                                    107 *                                                                                           
                                    108 * DEREFERENCE PARMS                                                                         
                                    109 *                                                                                           

                                                                                                               PAGE    3            

  LOC  OBJECT CODE    ADDR1 ADDR2  STMT   SOURCE STATEMENT                                                                          
0014BC 9825 1000            00000   110          LM    2,5,0(1)                 Deref parm list into R2-R5                          
                                    111 *                                                                                           
                                    112 * Preliminary XREAD to get fed and state withholding                                        
                                    113 *                                                                                           
0014C0 E000 C10C 0050 015B4         114          XREAD IFEDWITH,80              Get withholding percents                            
0014C6 4770 C070            01518   115          BC    B'0111',ENDLOOP          No data                                             
0014CA F235 4000 C10C 00000 015B4   116          PACK  0(4,4),IFEDWITH(6)       Convert stwith to PD                                
0014D0 F235 5000 C112 00000 015BA   117          PACK  0(4,5),ISTWITH(6)        Convert Fedwith to PD                               
                                    118 *                                                                                           
                                    119 * BUILDTBL LOGIC                                                                            
                                    120 *                                                                                           
                                    121 * Read loop to get data into table                                                          
                                    122 *                                                                                           
000000                              123          USING $TEMPENT,2               Adressability on DSECT                              
0014D6 E000 C15C 0050 01604         124          XREAD RECORD,80                Initial read                                        
0014DC 4770 C070            01518   125 TBLLOOP  BC    B'0111',ENDLOOP          Condition check after read                          
                                    126 *                                                                                           
0014E0 F247 2000 C15C 00000 01604   127          PACK  $TEMPID(5),IEMPID(8)     Convert EMPID to PD                                 
0014E6 F224 201E C164 0001E 0160C   128          PACK  $THRPAY(3),IHRPAY(5)     Pack HRPAY into PD field                            
0014EC F224 2021 C169 00021 01611   129          PACK  $THOURS(3),IHOURS(5)     Pack hours into PD field                            
0014F2 F224 2024 C16E 00024 01616   130          PACK  $TDEDUCT(3),IDEDUCT(5)   Pack deduction amount                               
0014F8 F224 2027 C173 00027 0161B   131          PACK  $TBONUS(3),IBONUS(5)     Pack bonus amount                                   
0014FE D218 2005 C178 00005 01620   132          MVC   $TEMPNME(25),IEMPNME     Move empnme to table                                
001504 FA20 3000 C080 00000 01528   133          AP    0(3,3),=PL1'1'           Increment emp count                                 
00150A 4120 202A            0002A   134          LA    2,42(,2)                 Move ptr to next entry                              
                                    135 *                                                                                           
00150E E000 C15C 0050 01604         136          XREAD RECORD,80                Read next                                           
001514 47F0 C034            014DC   137          BC    B'1111',TBLLOOP          Branch back to loop condition                       
                                    138 *                                                                                           
001518                              139 ENDLOOP  DS    0H                                                                           
                                    140 *                                                                                           
                                    141 *                                                                                           
                                    142 * DROP DSECT                                                                                
                                    143 *                                                                                           
001518                              144          DROP  2            Drop 2 as a base reg for table entry                            
                                    145 *                                                                                           
                                    146 *                                                                                           
                                    147 * STANDARD EXIT LINKAGE WITH RC OF 0                                                        
                                    148 *                                                                                           
001518 1BFF                         149          SR    15,15 R15 = RETURN CODE OF 0                                                 
00151A 58D0 D004            00004   150          L     13,4(,13) POINT R13 TO CALLER'S SAVE AREA                                    
00151E 58E0 D00C            0000C   151          L     14,12(,13) RESTORE REGISTER 14                                               
001522 980C D014            00014   152          LM    0,12,20(13) RESTORE R0 THRU R12                                              
                                    153 *                                                                                           
001526 07FE                         154          BR    14 RETURN TO CALLER                                                          
                                    155 *                                                                                           
                                    156          LTORG                                                                              
001528 1C                           157                =PL1'1'                                                                      
                                    158 *                                                                                           
001548                              159          ORG BUILDTBL+((*-BUILDTBL+31)/32)*32                                               
001548 5C40D7D9D6C7D9C1             160          DC C'* PROGRAM STORAGE FOR BUILDTBL **'                                            
                                    161 *                                                                                           
00156C                              162 BTBLSAVE DS 18F REGISTER SAVE AREA                                                          
                                    163 *                                                                                           
                                    164 * STORAGE FOR INITIAL XREAD                                                                 
                                    165 *                                                                                           
0015B4                              166 IFEDWITH DS    ZL6                                                                          

                                                                                                               PAGE    4            

  LOC  OBJECT CODE    ADDR1 ADDR2  STMT   SOURCE STATEMENT                                                                          
0015BA                              167 ISTWITH  DS    ZL6                                                                          
0015C0                              168          DS    CL68                                                                         
                                    169 *                                                                                           
                                    170 * STORAGE FOR LOOPED XREAD                                                                  
                                    171 *                                                                                           
001604                              172 RECORD   DS    0H                                                                           
001604                              173 IEMPID   DS    ZL8                                                                          
00160C                              174 IHRPAY   DS    ZL5                                                                          
001611                              175 IHOURS   DS    ZL5                                                                          
001616                              176 IDEDUCT  DS    ZL5                                                                          
00161B                              177 IBONUS   DS    ZL5                                                                          
001620                              178 IEMPNME  DS    CL25                                                                         
001639                              179          DS    CL27                                                                         
                                    180 *                                                                                           
                                    181 * PROCTBL PROGRAM                                                                           
                                    182 *                                                                                           
000000                              183 $EMPENT  DSECT                                                                              
000000                              184 $EMPID   DS    PL5                                                                          
000005                              185 $EMPNME  DS    CL25                                                                         
00001E                              186 $HRPAY   DS    PL3                                                                          
000021                              187 $HOURS   DS    PL3                                                                          
000024                              188 $DEDUCT  DS    PL3                                                                          
000027                              189 $BONUS   DS    PL3                                                                          
001658                              190 PROCTBL  CSECT                                                                              
                                    191 *                                                                                           
                                    192 * STANDARD ENTRY LINKAGE WITH R12 AS BASE REGISTER                                          
                                    193 *                                                                                           
001658 90EC D00C            0000C   194          STM   14,12,12(13) SAVE REGS IN CALLER'S SAVE AREA                                 
00165C 18CF                         195          LR    12,15 COPY CSECT ADDR INTO R12                                               
001658                              196          USING PROCTBL,12 ESTABLISH R12 AS THE BASE REG                                     
00165E 41E0 C340            01998   197          LA    14,PTBLSAVE R14 POINTS TO THIS CSECT'S SAVE AREA                             
001662 50E0 D008            00008   198          ST    14,8(,13) STORE ADDR OF THIS CSECT'S SAVE AREA                               
001666 50D0 E004            00004   199          ST    13,4(,14) STORE ADDR OF CALLER'S SAVE AREA                                   
00166A 18DE                         200          LR    13,14 POINT R13 AT THIS CSECT'S SAVE AREA                                    
                                    201 *                                                                                           
                                    202 * DEREFERENCE PARMS                                                                         
                                    203 *                                                                                           
00166C 9825 1000            00000   204          LM    2,5,0(1)          Derefernce parm list for proctbl                           
                                    205 *                                                                                           
                                    206 * REGISTERS FOR LINE COUNTING                                                               
                                    207 *                                                                                           
001670 4170 0013            00013   208          LA    7,19              Use R7 as line counter                                     
001674 4180 0013            00013   209          LA    8,19              Use R8 as key to compare R7 with                           
                                    210 *                                                                                           
                                    211 * HANDLE FED AND STATE WITHHOLDING PERCENTS INTO PARM LIST                                  
                                    212 *                                                                                           
001678 5040 CA20            02078   213          ST    4,CNPPARMS+4             Put fed percent into CNPPARMS                       
00167C 5050 CA28            02080   214          ST    5,CNPPARMS+12            Put state percent into CNPPARMS                     
                                    215 *                                                                                           
                                    216 * HANDLE EMP COUNTER INTO PARM LIST                                                         
                                    217 *                                                                                           
001680 5030 CA38            02090   218          ST    3,CAPARMS+4              Put PEMPCTR into CAPARMS                            
                                    219 *                                                                                           
                                    220 * PROCTBL LOGIC                                                                             
                                    221 *                                                                                           
                                    222 *                                                                                           
                                    223 * Loop through table and proc data                                                          

                                                                                                               PAGE    5            

  LOC  OBJECT CODE    ADDR1 ADDR2  STMT   SOURCE STATEMENT                                                                          
                                    224 *                                                                                           
000000                              225          USING $EMPENT,2                 Adressability on DSECT                             
001684 F822 C388 3000 019E0 00000   226          ZAP   PITCOUNT(3),0(3,3)                                                           
00168A F920 C388 C2EE 019E0 01946   227 LOOP2    CP    PITCOUNT(3),=PL1'0'       Compare iter number                                
001690 4780 C168            017C0   228          BC    B'1000',ENDLOOP2          Branch if done                                     
                                    229 *                                                                                           
001694 9240 C998      01FF0         230          MVI   DETAIL+1,C' '             Reset detail line                                  
001698 D282 C999 C998 01FF1 01FF0   231          MVC   DETAIL+2(131),DETAIL+1    Reset detail line                                  
                                    232 *                                                                                           
                                    233 * Handle emp id                                                                             
                                    234 *                                                                                           
00169E D209 C997 C2CC 01FEF 01924   235          MVC   OEMPID-1(10),=X'21202060202020202020' Created EP for ID                      
0016A4 DE09 C997 2000 01FEF 00000   236          ED    OEMPID-1(10),$EMPID       Edit ID into print line                            
0016AA 92F0 C997      01FEF         237          MVI   DETAIL,C'0'               Replace carriage control                           
                                    238 *                                                                                           
                                    239 * Handle hourly pay                                                                         
                                    240 *                                                                                           
0016AE 4110 C9C2            0201A   241          LA    1,OHRPAY+3                Safety mark for $                                  
0016B2 D206 C9BF C2EF 02017 01947   242          MVC   OHRPAY(7),=X'402021204B2020' Construct EP for HRPAY                          
0016B8 DF06 C9BF 201E 02017 0001E   243          EDMK  OHRPAY(7),$HRPAY          Edit and mark into printline                       
0016BE 0610                         244          BCTR  1,0                       Decrement R1 by one for $ pos                      
0016C0 925B 1000      00000         245          MVI   0(1),C'$'                 Place $                                            
                                    246 *                                                                                           
                                    247 * Handle Hours worked                                                                       
                                    248 *                                                                                           
0016C4 D206 C9C9 C2EF 02021 01947   249          MVC   OHOURS(7),=X'402021204B2020' Construct EP for hours                          
0016CA DE06 C9C9 2021 02021 00021   250          ED    OHOURS(7),$HOURS             Edit hours into print line                      
                                    251 *                                                                                           
                                    252 * Handle Name                                                                               
                                    253 *                                                                                           
0016D0 D218 C9A3 2005 01FFB 00005   254          MVC   OEMPNME(25),$EMPNME       Move empnme to output                              
                                    255 *                                                                                           
                                    256 * Handle Gross pay                                                                          
                                    257 *                                                                                           
0016D6 F852 C39E 201E 019F6 0001E   258          ZAP   PGRPAY(6),$HRPAY(3)       Zap hrpay into larger field                        
0016DC FC52 C39E 2021 019F6 00021   259          MP    PGRPAY(6),$HOURS(3)       Multiply hrpay by hours                            
0016E2 F055 C39E 003E 019F6 0003E   260          SRP   PGRPAY(6),64-2,5          Shift right two and round                          
0016E8 FB52 C39E 2024 019F6 00024   261          SP    PGRPAY(6),$DEDUCT(3)      Subtract deduction amount                          
0016EE FA52 C39E 2027 019F6 00027   262          AP    PGRPAY(6),$BONUS(3)       Add bonus amount                                   
0016F4 4110 C9E0            02038   263          LA    1,OGRPAY+11               Saftey mark for $                                  
0016F8 D20E C9D5 C2F6 0202D 0194E   264          MVC   OGRPAY(15),=X'402020206B2020206B2021204B2020' EP                             
0016FE DF0E C9D5 C39E 0202D 019F6   265          EDMK  OGRPAY(15),PGRPAY         Edit gross into printline                          
001704 0610                         266          BCTR  1,0                       Move R1 to $ position                              
001706 925B 1000      00000         267          MVI   0(1),C'$'                 Place $                                            
00170A FA65 C3B6 C39E 01A0E 019F6   268          AP    PTGRPAY(7),PGRPAY(6)      Add emp's gross to total                           
                                    269 *                                                                                           
                                    270 * CALL CALCNPAY                                                                             
                                    271 *                                                                                           
001710 4110 CA1C            02074   272          LA    1,CNPPARMS               Load addr of CNPPARMS into R1                       
001714 58F0 C2C0            01918   273          L     15,=V(CALCNPAY)          Load addr of CALCNPAY INTO R15                      
001718 05EF                         274          BALR  14,15                    Branch and link to R15                              
                                    275 *                                                                                           
                                    276 * FED WITHHOLDING INTO PRINT LINE                                                           
                                    277 *                                                                                           
00171A 4110 C9F4            0204C   278          LA    1,OFEDWITH+11             Saftey mark for $                                  
00171E D20E C9E9 C2F6 02041 0194E   279          MVC   OFEDWITH(15),=X'402020206B2020206B2021204B2020' Make EP                      
001724 DF0E C9E9 C3A4 02041 019FC   280          EDMK  OFEDWITH(15),PFEDWITH     Edit fedwith into print line                       

                                                                                                               PAGE    6            

  LOC  OBJECT CODE    ADDR1 ADDR2  STMT   SOURCE STATEMENT                                                                          
00172A 0610                         281          BCTR  1,0                       Decrement R1                                       
00172C 925B 1000      00000         282          MVI   0(1),C'$'                 Place $                                            
001730 FA65 C3BD C3A4 01A15 019FC   283          AP    PTFWITH(7),PFEDWITH(6)    Add to total                                       
                                    284 *                                                                                           
                                    285 * STATE WITHHOLDING INTO PRINT LINE                                                         
                                    286 *                                                                                           
001736 4110 CA06            0205E   287          LA    1,OSTWITH+11              Safety mark                                        
00173A D20E C9FB C2F6 02053 0194E   288          MVC   OSTWITH(15),=X'402020206B2020206B2021204B2020' Make EP                       
001740 DF0E C9FB C3AA 02053 01A02   289          EDMK  OSTWITH(15),PSTWITH       Edit into print line                               
001746 0610                         290          BCTR  1,0                       Decrement R1                                       
001748 925B 1000      00000         291          MVI   0(1),C'$'                 Place 4                                            
00174C FA65 C3C4 C3AA 01A1C 01A02   292          AP    PTSWITH(7),PSTWITH(6)     Add to total                                       
                                    293 *                                                                                           
                                    294 * NET PAY INTO PRINT LINE                                                                   
                                    295 *                                                                                           
001752 4110 CA18            02070   296          LA    1,ONETPAY+11              Safety mark for $                                  
001756 D20E CA0D C2F6 02065 0194E   297          MVC   ONETPAY(15),=X'402020206B2020206B2021204B2020' Make EP                       
00175C DF0E CA0D C3B0 02065 01A08   298          EDMK  ONETPAY(15),PNETPAY       Edit into print line                               
001762 0610                         299          BCTR  1,0                       Decrement R1                                       
001764 925B 1000      00000         300          MVI   0(1),C'$'                 Place $                                            
                                    301 *                                                                                           
001768 FA65 C3CB C3B0 01A23 01A08   302          AP    PTNETPAY(7),PNETPAY(6)    Add to total                                       
00176E 1978                         303          CR    7,8                       Check if time for headers                          
001770 4770 C150            017A8   304          BC    B'0111',NOPRINT           Branch if not                                      
001774 4170 0000            00000   305          LA    7,0                       Reset line counter                                 
001778 FA10 C38B C305 019E3 0195D   306          AP    PPAGECTR(2),=PL1'1'       Add one to page count                              
00177E D203 C461 C2C4 01AB9 0191C   307          MVC   OPAGENM(4),=X'40202120'   EP for current page no.                            
001784 DE03 C461 C38B 01AB9 019E3   308          ED    OPAGENM(4),PPAGECTR       Edit page number to PL                             
                                    309 *                                                                                           
00178A E020 C3E0 0085 01A38         310          XPRNT ONMEPAGE,133              Print company name and page                        
001790 E020 C465 0085 01ABD         311          XPRNT OTITLE,133                Print title                                        
001796 E020 C4EA 0085 01B42         312          XPRNT OHEAD1,133                Print first header line                            
00179C E020 C56F 0085 01BC7         313          XPRNT OHEAD2,133                Second header line                                 
0017A2 E020 C5F4 0085 01C4C         314          XPRNT OHEAD3,133                Third header line                                  
                                    315 *                                                                                           
0017A8                              316 NOPRINT  DS    0H                                                                           
                                    317 *                                                                                           
0017A8 E020 C997 0085 01FEF         318          XPRNT DETAIL,133                Print the line                                     
0017AE 4170 7001            00001   319          LA    7,1(,7)                   Increment line count                               
                                    320 *                                                                                           
                                    321 * Decrement emp count and branch back to check                                              
                                    322 *                                                                                           
0017B2 FB20 C388 C305 019E0 0195D   323          SP    PITCOUNT(3),=PL1'1'                                                          
0017B8 4120 202A            0002A   324          LA    2,42(,2)                  Move table ptr to next                             
0017BC 47F0 C032            0168A   325          BC    B'1111',LOOP2             Branch                                             
                                    326 *                                                                                           
0017C0                              327 ENDLOOP2 DS    0H                                                                           
                                    328 *                                                                                           
                                    329 * Print Totals page headers                                                                 
                                    330 *                                                                                           
0017C0 FA10 C38B C305 019E3 0195D   331          AP    PPAGECTR(2),=PL1'1'       Increase page count to final                       
0017C6 D203 C461 C2C4 01AB9 0191C   332          MVC   OPAGENM(4),=X'40202120'   Ep for final page count                            
0017CC DE03 C461 C38B 01AB9 019E3   333          ED    OPAGENM(4),PPAGECTR       Edit page count to PL                              
0017D2 E020 C3E0 0085 01A38         334          XPRNT ONMEPAGE,133              Print company name and page                        
0017D8 E020 C465 0085 01ABD         335          XPRNT OTITLE,133                Print title line                                   
0017DE E020 C679 0085 01CD1         336          XPRNT OTOTALS,133               Print totals line                                  
                                    337 *                                                                                           

                                                                                                               PAGE    7            

  LOC  OBJECT CODE    ADDR1 ADDR2  STMT   SOURCE STATEMENT                                                                          
                                    338 * Handle total number of employees                                                          
                                    339 *                                                                                           
0017E4 D205 C723 C2D6 01D7B 0192E   340          MVC   OTEMPCT(6),=X'402020202120' Ep for total emp count                           
0017EA DE05 C723 3000 01D7B 00000   341          ED    OTEMPCT(6),0(3)             Edit into printline                              
0017F0 E020 C6FE 0085 01D56         342          XPRNT OEMPCTR,133                 Print total emp count                            
                                    343 *                                                                                           
                                    344 * SHIFT PEMPCTR                                                                             
                                    345 *                                                                                           
0017F6 F020 3000 0002 00000 00002   346          SRP   0(3,3),2,0               Prepare emp count for divide                        
                                    347 *                                                                                           
                                    348 * CALLS TO CALCAVG                                                                          
                                    349 *                                                                                           
                                    350 * Move total gross into print line                                                          
                                    351 *                                                                                           
0017FC 4110 C7AD            01E05   352          LA    1,OTGRPAY+14              Safety mark for $                                  
001800 D211 C79F C2DC 01DF7 01934   353          MVC   OTGRPAY(18),=X'4020206B2020206B2020206B2021204B2020' EP                      
001806 DF11 C79F C3B6 01DF7 01A0E   354          EDMK  OTGRPAY(18),PTGRPAY       Edit total gross to PL                             
00180C 0610                         355          BCTR  1,0                       Decrement R1                                       
00180E 925B 1000      00000         356          MVI   0(1),C'$'                 Place $                                            
                                    357 *                                                                                           
                                    358 * Call calcavg for total gross                                                              
                                    359 *                                                                                           
001812 F866 C3D2 C3B6 01A2A 01A0E   360          ZAP   PTOTAL(7),PTGRPAY(7)      Zap total gross into ptotal                        
001818 4110 CA34            0208C   361          LA    1,CAPARMS                 Load addr of parm list                             
00181C 58F0 C2C8            01920   362          L     15,=V(CALCAVG)            Load addr of calcavg program                       
001820 05EF                         363          BALR  14,15                     Branch and link to subroutine                      
                                    364 *                                                                                           
                                    365 * Move average gross pay to printline and print the line                                    
                                    366 *                                                                                           
001822 4110 C7E6            01E3E   367          LA    1,OAGRPAY+14              Safety mark for $                                  
001826 D212 C7D8 C2DC 01E30 01934   368          MVC   OAGRPAY(19),=X'4020206B2020206B2020206B2021204B2020' EP                      
00182C DF12 C7D8 C3D9 01E30 01A31   369          EDMK  OAGRPAY(19),PAVG          Edit average gross into PL                         
001832 0610                         370          BCTR  1,0                       Decrement R1                                       
001834 925B 1000      00000         371          MVI   0(1),C'$'                 Place $                                            
001838 E020 C783 0085 01DDB         372          XPRNT OTAGRPAY,133              Print total and avg gross                          
                                    373 *                                                                                           
                                    374 * Move total fedwithholding into print line                                                 
                                    375 *                                                                                           
00183E 4110 C831            01E89   376          LA    1,OTFWITH+14              Safety mark for $                                  
001842 D212 C823 C2DC 01E7B 01934   377          MVC   OTFWITH(19),=X'4020206B2020206B2020206B2021204B2020' EP                      
001848 DF12 C823 C3BD 01E7B 01A15   378          EDMK  OTFWITH(19),PTFWITH       Edit total gross to PL                             
00184E 0610                         379          BCTR  1,0                       Decrement R1                                       
001850 925B 1000      00000         380          MVI   0(1),C'$'                 Place $                                            
                                    381 *                                                                                           
                                    382 * Call calcavg for total fed withholding                                                    
                                    383 *                                                                                           
001854 F866 C3D2 C3BD 01A2A 01A15   384          ZAP   PTOTAL(7),PTFWITH(7)      Zap total fedwith into ptotal                      
00185A 4110 CA34            0208C   385          LA    1,CAPARMS                 Load addr of parmlist                              
00185E 58F0 C2C8            01920   386          L     15,=V(CALCAVG)            Load addr of calcavg program                       
001862 05EF                         387          BALR  14,15                     Branch and link to R15                             
                                    388 *                                                                                           
                                    389 * Move average state withholding to printline and print the line                            
                                    390 *                                                                                           
001864 4110 C86B            01EC3   391          LA    1,OAFWITH+14              Safety mark for $                                  
001868 D212 C85D C2DC 01EB5 01934   392          MVC   OAFWITH(19),=X'4020206B2020206B2020206B2021204B2020' EP                      
00186E DF12 C85D C3D9 01EB5 01A31   393          EDMK  OAFWITH(19),PAVG          Edit average gross into PL                         
001874 0610                         394          BCTR  1,0                       Decrement R1                                       

                                                                                                               PAGE    8            

  LOC  OBJECT CODE    ADDR1 ADDR2  STMT   SOURCE STATEMENT                                                                          
001876 925B 1000      00000         395          MVI   0(1),C'$'                 Place $                                            
00187A E020 C808 0085 01E60         396          XPRNT OFEDTOT,133               Print total and avg gross                          
                                    397 *                                                                                           
                                    398 * Move total statewithholding into print line                                               
                                    399 *                                                                                           
001880 4110 C8B7            01F0F   400          LA    1,OTSWITH+14              Safety mark for $                                  
001884 D212 C8A9 C2DC 01F01 01934   401          MVC   OTSWITH(19),=X'4020206B2020206B2020206B2021204B2020' EP                      
00188A DF12 C8A9 C3C4 01F01 01A1C   402          EDMK  OTSWITH(19),PTSWITH       Edit total gross to PL                             
001890 0610                         403          BCTR  1,0                       Decrement R1                                       
001892 925B 1000      00000         404          MVI   0(1),C'$'                 Place $                                            
                                    405 *                                                                                           
                                    406 * Call calcavg for total state withholding                                                  
                                    407 *                                                                                           
001896 F866 C3D2 C3C4 01A2A 01A1C   408          ZAP   PTOTAL(7),PTSWITH(7)      Zap total stwith into ptotal                       
00189C 4110 CA34            0208C   409          LA    1,CAPARMS                 Load addr of parm list                             
0018A0 58F0 C2C8            01920   410          L     15,=V(CALCAVG)            Load addr of calcavg program                       
0018A4 05EF                         411          BALR  14,15                     Branch and link to R15                             
                                    412 *                                                                                           
                                    413 * Move average state withholding to printline and print the line                            
                                    414 *                                                                                           
0018A6 4110 C8F0            01F48   415          LA    1,OASWITH+14              Safety mark for $                                  
0018AA D212 C8E2 C2DC 01F3A 01934   416          MVC   OASWITH(19),=X'4020206B2020206B2020206B2021204B2020' EP                      
0018B0 DF12 C8E2 C3D9 01F3A 01A31   417          EDMK  OASWITH(19),PAVG          Edit average gross into PL                         
0018B6 0610                         418          BCTR  1,0                       Decrement R1                                       
0018B8 925B 1000      00000         419          MVI   0(1),C'$'                 Place $                                            
0018BC E020 C88D 0085 01EE5         420          XPRNT OSTTOT,133                Print total and avg gross                          
                                    421 *                                                                                           
                                    422 * Move total net pay into print line                                                        
                                    423 *                                                                                           
0018C2 4110 C93C            01F94   424          LA    1,OTNETPAY+14             Safety mark for $                                  
0018C6 D212 C92E C2DC 01F86 01934   425          MVC   OTNETPAY(19),=X'4020206B2020206B2020206B2021204B2020' EP                     
0018CC DF12 C92E C3CB 01F86 01A23   426          EDMK  OTNETPAY(19),PTNETPAY     Edit total gross to PL                             
0018D2 0610                         427          BCTR  1,0                       Decrement R1                                       
0018D4 925B 1000      00000         428          MVI   0(1),C'$'                 Place $                                            
                                    429 *                                                                                           
                                    430 * Call calcavg for total state withholding                                                  
                                    431 *                                                                                           
0018D8 F866 C3D2 C3CB 01A2A 01A23   432          ZAP   PTOTAL(7),PTNETPAY(7)     Zap total netpay into ptotal                       
0018DE 4110 CA34            0208C   433          LA    1,CAPARMS                 Load addr of parm list                             
0018E2 58F0 C2C8            01920   434          L     15,=V(CALCAVG)            Load addr of calcavg program                       
0018E6 05EF                         435          BALR  14,15                     Branch and link to R15                             
                                    436 *                                                                                           
                                    437 * Move average state withholding to printline and print the line                            
                                    438 *                                                                                           
0018E8 4110 C976            01FCE   439          LA    1,OANETPAY+14             Safety mark for $                                  
0018EC D212 C968 C2DC 01FC0 01934   440          MVC   OANETPAY(19),=X'4020206B2020206B2020206B2021204B2020' EP                     
0018F2 DF12 C968 C3D9 01FC0 01A31   441          EDMK  OANETPAY(19),PAVG         Edit average gross into PL                         
0018F8 0610                         442          BCTR  1,0                       Decrement R1                                       
0018FA 925B 1000      00000         443          MVI   0(1),C'$'                 Place $                                            
0018FE E020 C912 0085 01F6A         444          XPRNT ONETTOT,133               Print total and avg gross                          
                                    445 *                                                                                           
                                    446 * DROP DSECT                                                                                
                                    447 *                                                                                           
001904                              448          DROP  2    Unestablish addressability off R2                                       
                                    449 *                                                                                           
                                    450 * STANDARD EXIT LINKAGE WITH RC OF 0                                                        
                                    451 *                                                                                           

                                                                                                               PAGE    9            

  LOC  OBJECT CODE    ADDR1 ADDR2  STMT   SOURCE STATEMENT                                                                          
001904 1BFF                         452          SR    15,15 R15 = RETURN CODE OF 0                                                 
001906 58D0 D004            00004   453          L     13,4(,13) POINT R13 TO CALLER'S SAVE AREA                                    
00190A 58E0 D00C            0000C   454          L     14,12(,13) RESTORE REGISTER 14                                               
00190E 980C D014            00014   455          LM    0,12,20(13) RESTORE R0 THRU R12                                              
                                    456 *                                                                                           
001912 07FE                         457          BR    14 RETURN TO CALLER                                                          
                                    458 *                                                                                           
                                    459          LTORG                                                                              
001918 00002098                     460                =V(CALCNPAY)                                                                 
00191C 40202120                     461                =X'40202120'                                                                 
001920 00002190                     462                =V(CALCAVG)                                                                  
001924 2120206020202020             463                =X'21202060202020202020'                                                     
00192E 402020202120                 464                =X'402020202120'                                                             
001934 4020206B2020206B             465                =X'4020206B2020206B2020206B2021204B2020'                                     
001946 0C                           466                =PL1'0'                                                                      
001947 402021204B2020               467                =X'402021204B2020'                                                           
00194E 402020206B202020             468                =X'402020206B2020206B2021204B2020'                                           
00195D 1C                           469                =PL1'1'                                                                      
                                    470 *                                                                                           
001978                              471          ORG PROCTBL+((*-PROCTBL+31)/32)*32                                                 
001978 5C40D7D9D6C7D9C1             472          DC C'* PROGRAM STORAGE FOR PROCTBL **'                                             
                                    473 *                                                                                           
001998                              474 PTBLSAVE DS 18F REGISTER SAVE AREA                                                          
                                    475 *                                                                                           
                                    476 *                                                                                           
0019E0 00000C                       477 PITCOUNT DC    PL3'0'                                                                       
0019E3 000C                         478 PPAGECTR DC    PL2'0' PACKED PAGE COUNTER (MAX 999)                                         
                                    479 *                                                                                           
0019E5 000000000C                   480 PEMPID   DC    PL5'0' PACKED EMPLOYEE ID                                                    
0019EA 00000C                       481 PHRPAY   DC    PL3'0' PACKED EMPLOYEE HOURLY PAY RATE                                       
0019ED 00000C                       482 PHOURS   DC    PL3'0' PACKED EMPLOYEE HOURS WORKED                                          
0019F0 00000C                       483 PDEDUCT  DC    PL3'0' PACKED EMPLOYEE DEDUCTION                                             
0019F3 00000C                       484 PBONUS   DC    PL3'0' PACKED EMPLOYEE BONUS                                                 
0019F6 00000000000C                 485 PGRPAY   DC    PL6'0' PACKED CALCULATED EMPLOYEE GROSS PAY                                  
0019FC 00000000000C                 486 PFEDWITH DC    PL6'0' PACKED CALCULATED FEDERAL WITHHOLDING                                 
001A02 00000000000C                 487 PSTWITH  DC    PL6'0' PACKED CALCULATED STATE WITHHOLDING                                   
001A08 00000000000C                 488 PNETPAY  DC    PL6'0' PACKED CALCULATED EMPLOYEE NET PAY                                    
                                    489 *                                                                                           
001A0E 0000000000000C               490 PTGRPAY  DC    PL7'0' PACKED TOTAL GROSS EMPLOYEE PAY                                       
001A15 0000000000000C               491 PTFWITH  DC    PL7'0' PACKED TOTAL FEDERAL WITHHOLDING                                      
001A1C 0000000000000C               492 PTSWITH  DC    PL7'0' PACKED TOTAL STATE WITHHOLDING                                        
001A23 0000000000000C               493 PTNETPAY DC    PL7'0' PACKED TOTAL NET EMPLOYEE PAY                                         
                                    494 *                                                                                           
001A2A 0000000000000C               495 PTOTAL   DC    PL7'0'                                                                       
001A31 0000000000000C               496 PAVG     DC    PL7'0'                                                                       
                                    497 *                                                                                           
                                    498 * STORAGE FOR COMPANY NAME AND PAGE NUMBER                                                  
                                    499 *                                                                                           
001A38 F1                           500 ONMEPAGE DC    CL1'1'                                                                       
001A39 4040404040404040             501          DC    52C' '                                                                       
001A6D C3C8C9C3C1C7D640             502          DC    CL30'CHICAGO SOFTWARE COMPANY, INC.'                                         
001A8B 4040404040404040             503          DC    40C' '                                                                       
001AB3 D7C1C7C57A40                 504          DC    CL6'PAGE: '                                                                  
001AB9 40404040                     505 OPAGENM  DC    4C' '                                                                        
                                    506 *                                                                                           
                                    507 * STORAGE FOR TITLE                                                                         
                                    508 *                                                                                           

                                                                                                               PAGE   10            

  LOC  OBJECT CODE    ADDR1 ADDR2  STMT   SOURCE STATEMENT                                                                          
001ABD 40                           509 OTITLE   DC    CL1' '                                                                       
001ABE 4040404040404040             510          DC    54C' '                                                                       
001AF4 C5D4D7D3D6E8C5C5             511          DC    CL23'EMPLOYEE PAYROLL REPORT'                                                
001B0B 4040404040404040             512          DC    55C' '                                                                       
                                    513 *                                                                                           
                                    514 * Storage for column headers                                                                
                                    515 *                                                                                           
001B42 F0                           516 OHEAD1   DC    CL1'0'                                                                       
001B43 C5D4D7D3D6E8C5C5             517          DC    CL8'EMPLOYEE'                                                                
001B4B 404040                       518          DC    3C' '                                                                        
001B4E C5D4D7D3D6E8C5C5             519          DC    CL8'EMPLOYEE'                                                                
001B56 4040404040404040             520          DC    21C' '                                                                       
001B6B C8D6E4D9D3E8                 521          DC    CL6'HOURLY'                                                                  
001B71 4040404040                   522          DC    5C' '                                                                        
001B76 C8D6E4D9E2                   523          DC    CL5'HOURS'                                                                   
001B7B 4040404040404040             524          DC    12C' '                                                                       
001B87 C5D4D7D3D6E8C5C5             525          DC    CL8'EMPLOYEE'                                                                
001B8F 40404040                     526          DC    4C' '                                                                        
001B93 C5D4D7D3D6E8C5C5             527          DC    CL16'EMPLOYEE FEDERAL'                                                       
001BA3 40404040                     528          DC    4C' '                                                                        
001BA7 C5D4D7D3D6E8C5C5             529          DC    C'EMPLOYEE STATE'                                                            
001BB5 4040404040404040             530          DC    10C' '                                                                       
001BBF C5D4D7D3D6E8C5C5             531          DC    CL8'EMPLOYEE'                                                                
                                    532 *                                                                                           
001BC7 40                           533 OHEAD2   DC    C' '                                                                         
001BC8 C9C4                         534          DC    CL2'ID'                                                                      
001BCA 4040404040404040             535          DC    9C' '                                                                        
001BD3 D5C1D4C5                     536          DC    CL4'NAME'                                                                    
001BD7 4040404040404040             537          DC    28C' '                                                                       
001BF3 D7C1E8                       538          DC    CL3'PAY'                                                                     
001BF6 40404040                     539          DC    4C' '                                                                        
001BFA E6D6D9D2C5C4                 540          DC    CL6'WORKED'                                                                  
001C00 4040404040404040             541          DC    11C' '                                                                       
001C0B C7D9D6E2E240D7C1             542          DC    CL9'GROSS PAY'                                                               
001C14 4040404040404040             543          DC    9C' '                                                                        
001C1D E6C9E3C8C8D6D3C4             544          DC    CL11'WITHHOLDING'                                                            
001C28 40404040404040               545          DC    7C' '                                                                        
001C2F E6C9E3C8C8D6D3C4             546          DC    CL11'WITHHOLDING'                                                            
001C3A 4040404040404040             547          DC    11C' '                                                                       
001C45 D5C5E340D7C1E8               548          DC    CL7'NET PAY'                                                                 
                                    549 *                                                                                           
001C4C 40                           550 OHEAD3   DC    CL1' '                                                                       
001C4D 6060606060606060             551          DC    9C'-'                                                                        
001C56 4040                         552          DC    2C' '                                                                        
001C58 6060606060606060             553          DC    25C'-'                                                                       
001C71 404040                       554          DC    3C' '                                                                        
001C74 60606060606060               555          DC    7C'-'                                                                        
001C7B 404040                       556          DC    3C' '                                                                        
001C7E 60606060606060               557          DC    7C'-'                                                                        
001C85 4040404040                   558          DC    5C' '                                                                        
001C8A 6060606060606060             559          DC    15C'-'                                                                       
001C99 40404040                     560          DC    4C' '                                                                        
001C9D 6060606060606060             561          DC    16C'-'                                                                       
001CAD 40404040                     562          DC    4C' '                                                                        
001CB1 6060606060606060             563          DC    14C'-'                                                                       
001CBF 404040                       564          DC    3C' '                                                                        
001CC2 6060606060606060             565          DC    15C'-'                                                                       

                                                                                                               PAGE   11            

  LOC  OBJECT CODE    ADDR1 ADDR2  STMT   SOURCE STATEMENT                                                                          
                                    566 *                                                                                           
                                    567 * Storage For TOTALS line                                                                   
                                    568 *                                                                                           
001CD1 40                           569 OTOTALS  DC    CL1' '                                                                       
001CD2 4040404040404040             570          DC    62C' '                                                                       
001D10 E3D6E3C1D3E2                 571          DC    CL6'TOTALS'                                                                  
001D16 4040404040404040             572          DC    64C' '                                                                       
                                    573 *                                                                                           
                                    574 * Storage for number of employees                                                           
                                    575 *                                                                                           
001D56 F0                           576 OEMPCTR  DC    CL1'0'                                                                       
001D57 404040404040                 577          DC    6C' '                                                                        
001D5D D5E4D4C2C5D940D6             578          DC    CL21'NUMBER OF EMPLOYEES: '                                                  
001D72 4040404040404040             579          DC    9C' '                                                                        
001D7B                              580 OTEMPCT  DS    CL6                                                                          
001D81 4040404040404040             581          DC    90C' '                                                                       
                                    582 *                                                                                           
                                    583 * Storage for total gross and average gross                                                 
                                    584 *                                                                                           
001DDB F0                           585 OTAGRPAY DC    CL1'0'                                                                       
001DDC 4040404040404040             586          DC    10C' '                                                                       
001DE6 E3D6E3C1D340C7D9             587          DC    CL16'TOTAL GROSS PAY: '                                                      
001DF6 40                           588          DC    CL1' '                                                                       
001DF7                              589 OTGRPAY  DS    CL18                                                                         
001E09 4040404040404040             590          DC    20C' '                                                                       
001E1D C1E5C5D9C1C7C540             591          DC    CL19'AVERAGE GROSS PAY: '                                                    
001E30                              592 OAGRPAY  DS    CL19                                                                         
001E43 4040404040404040             593          DC    29C' '                                                                       
                                    594 *                                                                                           
                                    595 * Storage for total fed withholding and average fed withholding                             
                                    596 *                                                                                           
001E60 F0                           597 OFEDTOT  DC    CL1'0'                                                                       
001E61 E3D6E3C1D340C6C5             598          DC    CL26'TOTAL FEDERAL WITHHOLDING: '                                            
001E7B                              599 OTFWITH  DS    CL19                                                                         
001E8E 4040404040404040             600          DC    10C' '                                                                       
001E98 C1E5C5D9C1C7C540             601          DC    CL29'AVERAGE FEDERAL WITHHOLDING: '                                          
001EB5                              602 OAFWITH  DS    CL19                                                                         
001EC8 4040404040404040             603          DC    29C' '                                                                       
                                    604 *                                                                                           
                                    605 * Storage for total state withholding and average state withholding                         
                                    606 *                                                                                           
001EE5 F0                           607 OSTTOT  DC    CL1'0'                                                                        
001EE6 4040                         608         DC    2C' '                                                                         
001EE8 E3D6E3C1D340E2E3             609         DC    CL25'TOTAL STATE WITHHOLDING: '                                               
001F01                              610 OTSWITH DS    CL19                                                                          
001F14 4040404040404040             611         DC    12C' '                                                                        
001F20 C1E5C5D9C1C7C540             612         DC    CL26'AVERAGE STATE WITHHOLDING: '                                             
001F3A                              613 OASWITH DS    CL19                                                                          
001F4D 4040404040404040             614         DC    29C' '                                                                        
                                    615 *                                                                                           
                                    616 * Storage for total net and average net                                                     
                                    617 *                                                                                           
001F6A F0                           618 ONETTOT  DC   CL1'0'                                                                        
001F6B 4040404040404040             619          DC   12C' '                                                                        
001F77 E3D6E3C1D340D5C5             620          DC   CL15'TOTAL NET PAY: '                                                         
001F86                              621 OTNETPAY DS   CL19                                                                          
001F99 4040404040404040             622          DC   22C' '                                                                        

                                                                                                               PAGE   12            

  LOC  OBJECT CODE    ADDR1 ADDR2  STMT   SOURCE STATEMENT                                                                          
001FAF C1E5C5D9C1C7C540             623          DC   CL17'AVERAGE NET PAY: '                                                       
001FC0                              624 OANETPAY DS   CL19                                                                          
001FD3 4040404040404040             625          DC   28C' '                                                                        
                                    626 *                                                                                           
                                    627 * STORAGE FOR MAIN PRINT LINE                                                               
                                    628 *                                                                                           
001FEF F0                           629 DETAIL   DC    CL1'0'                                                                       
001FF0                              630 OEMPID   DS    CL10                                                                         
001FFA 40                           631          DC    CL1' '                                                                       
001FFB                              632 OEMPNME  DS    28C' '                                                                       
002017                              633 OHRPAY   DS    CL7                                                                          
00201E 404040                       634          DC    3C' '                                                                        
002021                              635 OHOURS   DS    CL7                                                                          
002028 4040404040                   636          DC    5C' '                                                                        
00202D                              637 OGRPAY   DS    CL15                                                                         
00203C 4040404040                   638          DC    5C' '                                                                        
002041                              639 OFEDWITH DS    CL15                                                                         
002050 404040                       640          DC    3C' '                                                                        
002053                              641 OSTWITH  DS    CL15                                                                         
002062 404040                       642          DC    3C' '                                                                        
002065                              643 ONETPAY  DS    CL15                                                                         
                                    644 *                                                                                           
002074 000019F6                     645 CNPPARMS DC     A(PGRPAY)                                                                   
002078 00000000                     646          DC     A(0)                                                                        
00207C 000019FC                     647          DC     A(PFEDWITH)                                                                 
002080 00000000                     648          DC     A(0)                                                                        
002084 00001A02                     649          DC     A(PSTWITH)                                                                  
002088 00001A08                     650          DC     A(PNETPAY)                                                                  
                                    651 *                                                                                           
00208C 00001A2A                     652 CAPARMS  DC     A(PTOTAL)                                                                   
002090 00000000                     653          DC     A(0)                                                                        
002094 00001A31                     654          DC     A(PAVG)                                                                     
                                    655 *                                                                                           
                                    656 * CALCNPAY                                                                                  
                                    657 *                                                                                           
002098                              658 CALCNPAY CSECT                                                                              
                                    659 *                                                                                           
                                    660 * STANDARD ENTRY LINKAGE WITH R12 AS BASE REGISTER                                          
                                    661 *                                                                                           
002098 90EC D00C            0000C   662          STM   14,12,12(13) SAVE REGS IN CALLER'S SAVE AREA                                 
00209C 18CF                         663          LR    12,15 COPY CSECT ADDR INTO R12                                               
002098                              664          USING CALCNPAY,12 ESTABLISH R12 AS THE BASE REG                                    
00209E 41E0 C0A4            0213C   665          LA    14,CNSAVE R14 POINTS TO THIS CSECT'S SAVE AREA                               
0020A2 50E0 D008            00008   666          ST    14,8(,13) STORE ADDR OF THIS CSECT'S SAVE AREA                               
0020A6 50D0 E004            00004   667          ST    13,4(,14) STORE ADDR OF CALLER'S SAVE AREA                                   
0020AA 18DE                         668          LR    13,14 POINT R13 AT THIS CSECT'S SAVE AREA                                    
                                    669 *                                                                                           
                                    670 * DEREFERENCE PARMS                                                                         
                                    671 *                                                                                           
0020AC 9827 1000            00000   672          LM    2,7,0(1)                                                                     
                                    673 *                                                                                           
                                    674 * CALCNPAY LOGIC                                                                            
                                    675 *                                                                                           
                                    676 *                                                                                           
                                    677 * Handle fed withholding amount                                                             
                                    678 *                                                                                           
0020B0 F895 C0EC 2000 02184 00000   679          ZAP   PCALC(10),0(6,2)          Zap gross into larger field                        

                                                                                                               PAGE   13            

  LOC  OBJECT CODE    ADDR1 ADDR2  STMT   SOURCE STATEMENT                                                                          
0020B6 FC93 C0EC 3000 02184 00000   680          MP    PCALC(10),0(4,3)          Multiply gross by fed percent                      
0020BC F095 C0EC 003B 02184 0003B   681          SRP   PCALC(10),64-5,5          Shift right 5 and round                            
0020C2 F859 4000 C0EC 00000 02184   682          ZAP   0(6,4),PCALC(10)          Zap into result field                              
                                    683 *                                                                                           
                                    684 * Handle State withholding amount                                                           
                                    685 *                                                                                           
0020C8 F895 C0EC 2000 02184 00000   686          ZAP   PCALC(10),0(6,2)          Zap gross into larger field                        
0020CE FC93 C0EC 5000 02184 00000   687          MP    PCALC(10),0(4,5)          Multiply gross by state pcnt                       
0020D4 F095 C0EC 003B 02184 0003B   688          SRP   PCALC(10),64-5,5          Shift right 5 and round                            
0020DA F859 6000 C0EC 00000 02184   689          ZAP   0(6,6),PCALC(10)          Zap into result field                              
                                    690 *                                                                                           
                                    691 * Handle Net Pay                                                                            
                                    692 *                                                                                           
0020E0 F855 7000 2000 00000 00000   693          ZAP   0(6,7),0(6,2)             Zap gross into result field                        
0020E6 FB55 7000 4000 00000 00000   694          SP    0(6,7),0(6,4)             Subtract off fed withholding                       
0020EC FB55 7000 6000 00000 00000   695          SP    0(6,7),0(6,6)             Subtract off state withholding                     
                                    696 *                                                                                           
                                    697 *                                                                                           
                                    698 * STANDARD EXIT LINKAGE WITH RC OF 0                                                        
                                    699 *                                                                                           
0020F2 1BFF                         700          SR    15,15 R15 = RETURN CODE OF 0                                                 
0020F4 58D0 D004            00004   701          L     13,4(,13) POINT R13 TO CALLER'S SAVE AREA                                    
0020F8 58E0 D00C            0000C   702          L     14,12(,13) RESTORE REGISTER 14                                               
0020FC 980C D014            00014   703          LM    0,12,20(13) RESTORE R0 THRU R12                                              
                                    704 *                                                                                           
002100 07FE                         705          BR    14 RETURN TO CALLER                                                          
                                    706 *                                                                                           
                                    707          LTORG                                                                              
                                    708 *                                                                                           
002118                              709          ORG CALCNPAY+((*-CALCNPAY+31)/32)*32                                               
002118 5C40D7D9D6C7D9C1             710          DC C'* PROGRAM STORAGE FOR CALCNPAY **'                                            
                                    711 *                                                                                           
00213C                              712 CNSAVE   DS 18F REGISTER SAVE AREA                                                          
                                    713 *                                                                                           
                                    714 * STORAGE FOR CALCNPAY                                                                      
                                    715 *                                                                                           
002184 0000000000000000             716 PCALC    DC    PL10'0' USED TO CALCULATE WITHHOLDING AND AVGS                               
                                    717 *                                                                                           
                                    718 * CALC AVG                                                                                  
                                    719 *                                                                                           
002190                              720 CALCAVG CSECT                                                                               
                                    721 *                                                                                           
                                    722 * STANDARD ENTRY LINKAGE WITH R12 AS BASE REGISTER                                          
                                    723 *                                                                                           
002190 90EC D00C            0000C   724          STM   14,12,12(13) SAVE REGS IN CALLER'S SAVE AREA                                 
002194 18CF                         725          LR    12,15 COPY CSECT ADDR INTO R12                                               
002190                              726          USING CALCAVG,12 ESTABLISH R12 AS THE BASE REG                                     
002196 41E0 C060            021F0   727          LA    14,CASAVE R14 POINTS TO THIS CSECT'S SAVE AREA                               
00219A 50E0 D008            00008   728          ST    14,8(,13) STORE ADDR OF THIS CSECT'S SAVE AREA                               
00219E 50D0 E004            00004   729          ST    13,4(,14) STORE ADDR OF CALLER'S SAVE AREA                                   
0021A2 18DE                         730          LR    13,14 POINT R13 AT THIS CSECT'S SAVE AREA                                    
                                    731 *                                                                                           
                                    732 * DEREFERNCE PARMS                                                                          
                                    733 *                                                                                           
0021A4 9824 1000            00000   734          LM    2,4,0(1)                Dereference parm list                                
                                    735 *                                                                                           
                                    736 * CALC AVG LOGIC                                                                            

                                                                                                               PAGE   14            

  LOC  OBJECT CODE    ADDR1 ADDR2  STMT   SOURCE STATEMENT                                                                          
                                    737 *                                                                                           
0021A8 F896 4000 2000 00000 00000   738          ZAP   0(10,4),0(7,2)          Zap total gross to calc field                        
0021AE F090 4000 0003 00000 00003   739          SRP   0(10,4),3,0             Add three fake decimal places                        
0021B4 FD92 4000 3000 00000 00000   740          DP    0(10,4),0(3,3)          Divide total gross by emp count                      
0021BA F065 4000 003F 00000 0003F   741          SRP   0(7,4),64-1,5           Round to two decimal places                          
                                    742 *                                                                                           
                                    743 * STANDARD EXIT LINKAGE WITH RC OF 0                                                        
                                    744 *                                                                                           
0021C0 1BFF                         745          SR    15,15 R15 = RETURN CODE OF 0                                                 
0021C2 58D0 D004            00004   746          L     13,4(,13) POINT R13 TO CALLER'S SAVE AREA                                    
0021C6 58E0 D00C            0000C   747          L     14,12(,13) RESTORE REGISTER 14                                               
0021CA 980C D014            00014   748          LM    0,12,20(13) RESTORE R0 THRU R12                                              
                                    749 *                                                                                           
0021CE 07FE                         750          BR    14 RETURN TO CALLER                                                          
                                    751 *                                                                                           
                                    752          LTORG                                                                              
                                    753 *                                                                                           
0021D0                              754          ORG CALCAVG+((*-CALCAVG+31)/32)*32                                                 
0021D0 5C40D7D9D6C7D9C1             755          DC C'* PROGRAM STORAGE FOR CALCAVG **'                                             
                                    756 *                                                                                           
0021F0                              757 CASAVE   DS 18F REGISTER SAVE AREA                                                          
                                    758 *                                                                                           
                                    759          END PAYROLL                                                                        

***  NO   STATEMENTS FLAGGED -  NO   WARNINGS,  NO   ERRORS                                                                         

*** DYNAMIC CORE AREA USED:  LOW:   38136 HIGH:    2720 LEAVING:  452712 FREE BYTES. AVERAGE:       53 BYTES/STMT ***               

*** ASSEMBLY TIME =    0.002 SECS,   380000 STATEMENTS/SEC ***                                                                      

*** PROGRAM EXECUTION BEGINNING - ANY OUTPUT BEFORE EXECUTION TIME MESSAGE IS PRODUCED BY USER PROGRAM ***                          

                                                    CHICAGO SOFTWARE COMPANY, INC.                                        PAGE:    1
                                                      EMPLOYEE PAYROLL REPORT                                                       

EMPLOYEE   EMPLOYEE                     HOURLY     HOURS            EMPLOYEE    EMPLOYEE FEDERAL    EMPLOYEE STATE          EMPLOYEE
ID         NAME                            PAY    WORKED           GROSS PAY         WITHHOLDING       WITHHOLDING           NET PAY
---------  -------------------------   -------   -------     ---------------    ----------------    --------------   ---------------

52-345245  JOAN TOWER                   $15.25     80.50           $1,722.75             $133.51            $55.99         $1,533.25

03-456322  WOLFGANG AMADEUS MOZART      $19.00     80.75           $1,547.69             $119.95            $50.30         $1,377.44

34-032233  RICHARD STRAUSS              $10.29     80.00           $1,045.97              $81.06            $33.99           $930.92

16-465120  AMY BEACH                    $22.00     77.00           $2,579.16             $199.88            $83.82         $2,295.46

76-560023  ETHEL SMYTH                  $23.75     28.25             $710.64              $55.07            $23.10           $632.47

23-870322  PETER ILYICH TCHAIKOVSKY     $22.95     80.50           $1,826.23             $141.53            $59.35         $1,625.35

04-966277  ANTON BRUCKNER               $23.20     78.67           $2,044.58             $158.45            $66.45         $1,819.68

02-345245  FLORENCE PRICE               $15.25     80.50           $1,802.75             $139.71            $58.59         $1,604.45

13-456322  CLAUDE DEBUSSY               $19.00     80.77           $1,546.85             $119.88            $50.27         $1,376.70

34-032233  JUDITH WEIR                  $10.29     80.00           $1,045.97              $81.06            $33.99           $930.92

16-465120  LUDWIG VAN BEETHOVEN         $22.00     80.00           $2,645.16             $205.00            $85.97         $2,354.19

06-560023  JOHANN SEBASTIAN BACH        $23.75     28.25             $707.64              $54.84            $23.00           $629.80

23-870322  AARON COPLAND                $22.95     80.50           $1,826.23             $141.53            $59.35         $1,625.35

94-966277  CHARLES IVES                 $20.20     78.67           $1,798.57             $139.39            $58.45         $1,600.73

02-345245  SHULAMIT RAN                 $15.25     80.50           $1,702.75             $131.96            $55.34         $1,515.45

13-456322  ARTHUR HONEGGER              $19.00     80.75           $1,547.69             $119.95            $50.30         $1,377.44

34-032233  NADIA BOULANGER              $10.29     80.00           $1,046.97              $81.14            $34.03           $931.80

16-465120  MAX REGER                    $22.00     80.00           $2,645.16             $205.00            $85.97         $2,354.19

76-560023  FRANZ SCHMIDT                $23.75     28.25             $707.64              $54.84            $23.00           $629.80

                                                    CHICAGO SOFTWARE COMPANY, INC.                                        PAGE:    2
                                                      EMPLOYEE PAYROLL REPORT                                                       

EMPLOYEE   EMPLOYEE                     HOURLY     HOURS            EMPLOYEE    EMPLOYEE FEDERAL    EMPLOYEE STATE          EMPLOYEE
ID         NAME                            PAY    WORKED           GROSS PAY         WITHHOLDING       WITHHOLDING           NET PAY
---------  -------------------------   -------   -------     ---------------    ----------------    --------------   ---------------

03-870322  WILLIAM SCHUMAN              $22.95     80.50           $1,826.23             $141.53            $59.35         $1,625.35

98-996277  FELIX MENDELSSOHN            $20.20     78.67           $1,798.57             $139.39            $58.45         $1,600.73

52-377245  FRANZ SCHUBERT               $15.25     80.50           $1,702.75             $131.96            $55.34         $1,515.45

03-566322  ROBERT SCHUMANN              $19.00     80.75           $1,547.69             $119.95            $50.30         $1,377.44

04-032233  DMITRI SCHOSTAKOWITSCH      $330.29     80.00          $26,645.97           $2,065.06           $865.99        $23,714.92

15-645120  JOHANNES BRAHMS              $22.00     80.00           $2,645.16             $205.00            $85.97         $2,354.19

76-560023  MODEST MUSSORGSKY            $23.75     28.25             $707.64              $54.84            $23.00           $629.80

23-320322  JOSEPH HAYDN                 $22.95     80.50           $1,826.23             $141.53            $59.35         $1,625.35

94-966327  ANTON WEBERN                 $20.20     78.67           $1,798.57             $139.39            $58.45         $1,600.73

02-545245  CLAUDIO MONTEVERDI           $33.33     80.20           $3,148.19             $243.98           $102.32         $2,801.89

03-456322  JEAN SIBELIUS                $19.00     80.75           $1,547.69             $119.95            $50.30         $1,377.44

34-457233  ARNOLD SCHOENBERG            $10.29     80.00           $1,025.97              $79.51            $33.34           $913.12

16-565120  MICHAEL TIPPETT              $22.00     80.00           $2,645.16             $205.00            $85.97         $2,354.19

70-056523  RICHARD WAGNER               $23.75     28.25             $707.64              $54.84            $23.00           $629.80

23-878794  FREDERIC CHOPIN              $22.95     79.50           $2,256.28             $174.86            $73.33         $2,008.09

94-966277  MICHAEL HAYDN                $20.20     78.67           $1,798.57             $139.39            $58.45         $1,600.73

02-345245  BENJAMIN BRITTEN             $15.25     80.50           $1,702.75             $131.96            $55.34         $1,515.45

13-456322  ANTONIO VIVALDI              $19.00     80.75           $1,547.69             $119.95            $50.30         $1,377.44

34-324867  JOHANN STRAUSS II           $810.29     80.00          $65,045.97           $5,041.06         $2,113.99        $57,890.92

                                                    CHICAGO SOFTWARE COMPANY, INC.                                        PAGE:    3
                                                      EMPLOYEE PAYROLL REPORT                                                       

EMPLOYEE   EMPLOYEE                     HOURLY     HOURS            EMPLOYEE    EMPLOYEE FEDERAL    EMPLOYEE STATE          EMPLOYEE
ID         NAME                            PAY    WORKED           GROSS PAY         WITHHOLDING       WITHHOLDING           NET PAY
---------  -------------------------   -------   -------     ---------------    ----------------    --------------   ---------------

06-465178  ANTONIN DVORAK               $22.00     80.00           $2,645.16             $205.00            $85.97         $2,354.19

09-978023  ALBAN BERG                   $23.75     28.25             $707.64              $54.84            $23.00           $629.80

03-870322  FRANZ LISZT                  $22.95     80.50           $1,826.23             $141.53            $59.35         $1,625.35

94-678677  EDWARD ELGAR                 $20.20     78.67           $1,798.57             $139.39            $58.45         $1,600.73

52-386785  DAVID DIAMOND                $15.25     80.50           $1,702.75             $131.96            $55.34         $1,515.45

14-342322  FANNY MENDELSSOHN            $19.00     80.75           $1,547.69             $119.95            $50.30         $1,377.44

04-037673  GIUSEPPE VERDI               $10.29     80.00           $1,045.97              $81.06            $33.99           $930.92

16-465120  MAX BRUCH                    $22.00     80.00           $2,645.16             $205.00            $85.97         $2,354.19

06-534545  HILDEGARD VON BINGEN        $723.75     28.25          $20,482.64           $1,587.40           $665.69        $18,229.55

23-845342  DIETRICH BUXTEHUDE           $22.95     80.50           $1,826.23             $141.53            $59.35         $1,625.35

34-466277  RALPH VAUGHAN WILLIAMS       $20.20     78.67           $1,798.57             $139.39            $58.45         $1,600.73

52-347867  FRANZ ABT                    $15.25     77.53           $1,140.45              $88.38            $37.06         $1,015.01

03-787632  FRANCESCA CACCINI            $19.00     80.75           $1,547.69             $119.95            $50.30         $1,377.44

34-032233  ENGELBERT HUMPERDINCK        $10.29     80.00           $1,045.97              $81.06            $33.99           $930.92

16-465120  BORIS BLACHER                $22.00     80.00           $2,645.16             $205.00            $85.97         $2,354.19

76-560023  PAUL HINDEMITH               $23.75     28.25             $707.64              $54.84            $23.00           $629.80

23-870322  BARBARA STROZZI              $22.95     80.50           $1,826.23             $141.53            $59.35         $1,625.35

04-966277  KURT WEILL                   $20.20     78.67           $1,798.57             $139.39            $58.45         $1,600.73

52-345245  CLARA SCHUMANN               $15.25     80.50           $1,702.75             $131.96            $55.34         $1,515.45

                                                    CHICAGO SOFTWARE COMPANY, INC.                                        PAGE:    4
                                                      EMPLOYEE PAYROLL REPORT                                                       

EMPLOYEE   EMPLOYEE                     HOURLY     HOURS            EMPLOYEE    EMPLOYEE FEDERAL    EMPLOYEE STATE          EMPLOYEE
ID         NAME                            PAY    WORKED           GROSS PAY         WITHHOLDING       WITHHOLDING           NET PAY
---------  -------------------------   -------   -------     ---------------    ----------------    --------------   ---------------

13-456322  JOHANN ANTON ANDRE           $19.00     80.75           $1,547.69             $119.95            $50.30         $1,377.44

34-032233  CHRISTOPH WILLIBALD GLUCK    $10.29     80.00           $1,045.97              $81.06            $33.99           $930.92

16-465120  AUGUST BUNGERT               $22.00     80.00           $2,645.16             $205.00            $85.97         $2,354.19

06-560023  REINER BREDEMEYER            $23.75     28.25             $707.64              $54.84            $23.00           $629.80

03-870322  LOUISE FARENC                $22.95     80.50           $1,893.73             $146.76            $61.55         $1,685.42

04-966277  HANS PFITZNER                $20.20     78.67           $1,798.57             $139.39            $58.45         $1,600.73

02-345245  GIOVANNI HENRICO ALBINONI    $15.25     80.50           $1,779.05             $137.88            $57.82         $1,583.35

13-967978  MICHAEL VON BIEL             $19.00     80.75           $1,543.15             $119.59            $50.15         $1,373.41

36-765233  JOHANN LUDWIG BACH           $10.29     80.00           $1,445.75             $112.05            $46.99         $1,286.71

15-656760  TERESA CARRENO               $22.00     80.56           $1,916.48             $148.53            $62.29         $1,705.66

76-560023  WOLDEMAR BARGIEL             $23.75     28.25             $707.64              $54.84            $23.00           $629.80

23-870322  ANDRZEJ PANUFNIK             $22.95     80.50           $1,826.23             $141.53            $59.35         $1,625.35

94-966277  EDVARD GRIEG                 $20.20     78.67           $1,798.57             $139.39            $58.45         $1,600.73

08-765245  WALTER BRAUNFELS             $15.25     80.50           $1,702.75             $131.96            $55.34         $1,515.45

13-976322  ISABELLA LEONARDA            $19.00     80.75           $1,547.69             $119.95            $50.30         $1,377.44

34-035653  CAMILLE SAINT-SAENS          $10.29     80.00           $1,665.97             $129.11            $54.14         $1,482.72

16-487620  GEORGES BIZET                $22.00     80.00           $2,645.16             $205.00            $85.97         $2,354.19

79-679023  HECTOR BERLIOZ               $23.75     28.25           $1,307.34             $101.32            $42.49         $1,163.53

07-860322  GABRIEL FAURE                $22.95     80.50           $2,489.91             $192.97            $80.92         $2,216.02

                                                    CHICAGO SOFTWARE COMPANY, INC.                                        PAGE:    5
                                                      EMPLOYEE PAYROLL REPORT                                                       

EMPLOYEE   EMPLOYEE                     HOURLY     HOURS            EMPLOYEE    EMPLOYEE FEDERAL    EMPLOYEE STATE          EMPLOYEE
ID         NAME                            PAY    WORKED           GROSS PAY         WITHHOLDING       WITHHOLDING           NET PAY
---------  -------------------------   -------   -------     ---------------    ----------------    --------------   ---------------

94-452245  MAURICE RAVEL                $20.20     78.67           $1,798.57             $139.39            $58.45         $1,600.73

52-345245  CHARLES GOUNOD               $15.25     80.50           $1,701.29             $131.85            $55.29         $1,514.15

03-786322  ROXANNA PANUFNIK             $19.00     80.74           $1,293.00             $100.21            $42.02         $1,150.77

04-032233  GIACOMO MEYERBEER            $10.29     80.00           $1,045.97              $81.06            $33.99           $930.92

16-465120  ERIK SATIE                  $122.00     80.00          $10,645.16             $825.00           $345.97         $9,474.19

76-455023  KARLHEINZ STOCKHAUSEN        $23.75     28.25           $1,071.14              $83.01            $34.81           $953.32

03-870345  FRANCIS POULENC             $345.95     78.65          $26,590.92           $2,060.80           $864.20        $23,665.92

94-966277  JEAN-PHILIPPE RAMEAU         $20.20     75.67           $1,737.97             $134.69            $56.48         $1,546.80

52-345245  CECILE CHAMINADE             $15.25     80.50           $1,702.75             $131.96            $55.34         $1,515.45

13-456322  CESAR FRANCK                 $19.00     80.75           $1,547.69             $119.95            $50.30         $1,377.44

34-032233  HANS ZIMMER                  $10.29     80.00           $1,045.97              $81.06            $33.99           $930.92

16-465120  PIERRE BOULEZ                $27.52      4.00             $995.24              $77.13            $32.35           $885.76

06-560763  OLIVIER MESSIAEN             $23.02     75.25           $1,768.96             $137.09            $57.49         $1,574.38

23-870322  DARIUS MILHAUD               $22.95     80.50           $1,826.23             $141.53            $59.35         $1,625.35

04-966277  REBECCA CLARKE               $20.20     78.67           $1,798.57             $139.39            $58.45         $1,600.73

02-324545  PETER CORNELIUS              $15.25     80.50           $1,702.75             $131.96            $55.34         $1,515.45

13-456322  HANS WERNER HENZE            $19.00     80.75           $1,547.69             $119.95            $50.30         $1,377.44

41-155233  GEORG BOHM                   $10.29     80.00           $1,045.97              $81.06            $33.99           $930.92

01-165310  GERMAINE TAILLEFERRE         $22.00     80.00           $2,645.16             $205.00            $85.97         $2,354.19

                                                    CHICAGO SOFTWARE COMPANY, INC.                                        PAGE:    6
                                                      EMPLOYEE PAYROLL REPORT                                                       

EMPLOYEE   EMPLOYEE                     HOURLY     HOURS            EMPLOYEE    EMPLOYEE FEDERAL    EMPLOYEE STATE          EMPLOYEE
ID         NAME                            PAY    WORKED           GROSS PAY         WITHHOLDING       WITHHOLDING           NET PAY
---------  -------------------------   -------   -------     ---------------    ----------------    --------------   ---------------

76-145023  WILHELM FURTWANGLER          $23.75     28.25             $707.64              $54.84            $23.00           $629.80

23-814122  HANNS EISLER                 $22.95     80.50           $1,826.23             $141.53            $59.35         $1,625.35

04-954534  GEORG FRIEDRICH HANDEL       $20.20     78.67           $1,798.57             $139.39            $58.45         $1,600.73

02-334245  CARL PHILIPP EMANUEL BACH    $15.25     80.50           $1,702.75             $131.96            $55.34         $1,515.45

13-456322  LILI BOULANGER               $19.00     22.75             $445.69              $34.54            $14.48           $396.67

34-032233  JOHANN PACHELBEL             $10.29     80.00           $1,045.97              $81.06            $33.99           $930.92

06-465120  CARL ORFF                    $22.00     80.00           $2,645.16             $205.00            $85.97         $2,354.19

06-560023  FRANZ DANZI                  $23.75     28.25             $707.64              $54.84            $23.00           $629.80

03-134142  JOCELYN POOK                 $22.95     80.50           $1,826.23             $141.53            $59.35         $1,625.35

04-966277  WILHELM BERGER               $20.20     78.67           $1,798.57             $139.39            $58.45         $1,600.73

01-413245  JACQUES OFFENBACH            $15.25     80.50           $1,702.75             $131.96            $55.34         $1,515.45

13-456322  PHAMIE GOW                   $19.00     80.75           $1,547.69             $119.95            $50.30         $1,377.44

34-032233  WILHELM FRIEDEMANN BACH      $10.29     80.00           $1,045.97              $81.06            $33.99           $930.92

16-465120  HEINRICH SCHUTZ              $22.00     80.00           $2,645.16             $205.00            $85.97         $2,354.19

06-560023  GEORG PHILIPP TELEMANN       $23.75     28.25             $707.64              $54.84            $23.00           $629.80

03-870322  HANS-JURGEN VON BOSE         $22.95     80.50           $1,826.23             $141.53            $59.35         $1,625.35

94-966277  ANNE DUDLEY                  $20.20     78.67           $1,798.57             $139.39            $58.45         $1,600.73

52-345245  PAUL DESSAU                  $15.25     80.50           $1,702.75             $131.96            $55.34         $1,515.45

03-456322  FRIEDRICH BAUMFELDER         $19.00     80.75           $1,547.69             $119.95            $50.30         $1,377.44

                                                    CHICAGO SOFTWARE COMPANY, INC.                                        PAGE:    7
                                                      EMPLOYEE PAYROLL REPORT                                                       

EMPLOYEE   EMPLOYEE                     HOURLY     HOURS            EMPLOYEE    EMPLOYEE FEDERAL    EMPLOYEE STATE          EMPLOYEE
ID         NAME                            PAY    WORKED           GROSS PAY         WITHHOLDING       WITHHOLDING           NET PAY
---------  -------------------------   -------   -------     ---------------    ----------------    --------------   ---------------

34-032233  JOHANN CHRISTIAN BACH        $10.29     40.00             $634.37              $49.16            $20.62           $564.59

16-465120  RACHEL PORTMAN               $22.00     52.00           $2,029.16             $157.26            $65.95         $1,805.95

76-560023  DEBBIE WISEMAN               $23.75     28.25             $707.64              $54.84            $23.00           $629.80

                                                    CHICAGO SOFTWARE COMPANY, INC.                                        PAGE:    8
                                                      EMPLOYEE PAYROLL REPORT                                                       
                                                              TOTALS                                                                

      NUMBER OF EMPLOYEES:             117                                                                                          

          TOTAL GROSS PAY:        $330,791.71                    AVERAGE GROSS PAY:          $2,827.28                              

TOTAL FEDERAL WITHHOLDING:        $25,636.25           AVERAGE FEDERAL WITHHOLDING:            $219.11                              

  TOTAL STATE WITHHOLDING:         $10,750.66             AVERAGE STATE WITHHOLDING:            $91.89                              

            TOTAL NET PAY:        $294,404.80                       AVERAGE NET PAY:          $2,516.28                             

*** EXECUTION TIME =    0.004 SECS.     10550 INSTRUCTIONS EXECUTED -  2637500 INSTRUCTIONS/SEC ***                                 

*** AM004 - NORMAL USER TERMINATION BY RETURN ***                                                                                   

